target datalayout = "e-m:e-p270:32:32-p271:32:32-p272:64:64-i64:64-i128:128-f80:128-n8:16:32:64-S128"
target triple = "x86_64-pc-linux-gnu"

%struct.darktable_t = type { %struct.dt_codepath_t, i32, i32, ptr, ptr, ptr, ptr, ptr, ptr, ptr, ptr, ptr, ptr, ptr, ptr, ptr, ptr, ptr, ptr, ptr, ptr, ptr, ptr, ptr, ptr, ptr, ptr, ptr, ptr, ptr, [64 x %struct.dt_pthread_mutex_t], %struct.dt_pthread_mutex_t, %struct.dt_pthread_mutex_t, %struct.dt_pthread_mutex_t, %struct.dt_pthread_mutex_t, %struct.dt_pthread_mutex_t, ptr, ptr, ptr, ptr, ptr, ptr, ptr, ptr, ptr, ptr, ptr, ptr, ptr, %struct.dt_lua_state_t, ptr, double, ptr, i32, [47 x i32], i32, i32, ptr, ptr, %struct.dt_sys_resources_t, %struct.dt_backthumb_t, %struct.dt_gimp_t }
%struct.dt_codepath_t = type { i8, [3 x i8] }
%struct.dt_pthread_mutex_t = type { %union.pthread_mutex_t }
%union.pthread_mutex_t = type { %struct.__pthread_mutex_s }
%struct.__pthread_mutex_s = type { i32, i32, i32, i32, i32, i16, i16, %struct.__pthread_internal_list }
%struct.__pthread_internal_list = type { ptr, ptr }
%struct.dt_lua_state_t = type { i32 }
%struct.dt_sys_resources_t = type { i64, i64, ptr, ptr, i32 }
%struct.dt_backthumb_t = type { double, double, i32, i32, i32, i32 }
%struct.dt_gimp_t = type { i32, ptr, ptr, i32, i32 }

@darktable = external global %struct.darktable_t, align 8
@.str.48 = private unnamed_addr constant [119 x i8] c"generated/home/dtcxzyw/WorkSpace/Projects/compilers/llvm-opt-benchmark/bench/darktable/darktable/src/gui/preferences.c\00", align 1
@.str.259 = private unnamed_addr constant [17 x i8] c"select directory\00", align 1
@.str.476 = private unnamed_addr constant [41 x i8] c"[sql] %s:%d, function %s(): prepare \22%s\22\00", align 1
@stderr = external global ptr, align 8
@.str.478 = private unnamed_addr constant [53 x i8] c"sqlite3 error: %s:%d, function %s(), query \22%s\22: %s\0A\00", align 1
@.str.485 = private unnamed_addr constant [8 x i8] c"_cancel\00", align 1
@.str.493 = private unnamed_addr constant [6 x i8] c"_save\00", align 1
@.str.494 = private unnamed_addr constant [20 x i8] c"ui_last/export_path\00", align 1
@__FUNCTION__.export_preset = private unnamed_addr constant [14 x i8] c"export_preset\00", align 1
@.str.495 = private unnamed_addr constant [71 x i8] c"SELECT rowid, name, operation FROM data.presets WHERE writeprotect = 0\00", align 1
@.str.496 = private unnamed_addr constant [6 x i8] c"%s_%s\00", align 1

; Function Attrs: inlinehint nounwind uwtable
define internal ptr @GTK_NATIVE_DIALOG(ptr noundef %0) #7 {
  %2 = alloca ptr, align 8
  store ptr %0, ptr %2, align 8, !tbaa !61
  %3 = load ptr, ptr %2, align 8, !tbaa !61
  %4 = call i64 @gtk_native_dialog_get_type()
  %5 = call ptr @g_type_check_instance_cast(ptr noundef %3, i64 noundef %4)
  ret ptr %5
}

; Function Attrs: nounwind uwtable
define internal void @export_preset(ptr noundef %0, ptr noundef %1) #0 {
  %3 = alloca ptr, align 8
  %4 = alloca ptr, align 8
  %5 = alloca ptr, align 8
  %6 = alloca ptr, align 8
  %7 = alloca ptr, align 8
  %8 = alloca ptr, align 8
  %9 = alloca i32, align 4
  %10 = alloca i32, align 4
  %11 = alloca ptr, align 8
  %12 = alloca ptr, align 8
  %13 = alloca ptr, align 8
  store ptr %0, ptr %3, align 8, !tbaa !125
  store ptr %1, ptr %4, align 8, !tbaa !61
  call void @llvm.lifetime.start.p0(i64 8, ptr %5) #10
  %14 = load ptr, ptr %3, align 8, !tbaa !125
  %15 = call i64 @gtk_widget_get_type() #11
  %16 = call ptr @g_type_check_instance_cast(ptr noundef %14, i64 noundef %15)
  %17 = call ptr @gtk_widget_get_toplevel(ptr noundef %16)
  %18 = call i64 @gtk_window_get_type() #11
  %19 = call ptr @g_type_check_instance_cast(ptr noundef %17, i64 noundef %18)
  store ptr %19, ptr %5, align 8, !tbaa !76
  call void @llvm.lifetime.start.p0(i64 8, ptr %6) #10
  %20 = call ptr @dcgettext(ptr noundef null, ptr noundef @.str.259, i32 noundef 5) #10
  %21 = load ptr, ptr %5, align 8, !tbaa !76
  %22 = call i64 @gtk_window_get_type() #11
  %23 = call ptr @g_type_check_instance_cast(ptr noundef %21, i64 noundef %22)
  %24 = call ptr @dcgettext(ptr noundef null, ptr noundef @.str.493, i32 noundef 5) #10
  %25 = call ptr @dcgettext(ptr noundef null, ptr noundef @.str.485, i32 noundef 5) #10
  %26 = call ptr @gtk_file_chooser_native_new(ptr noundef %20, ptr noundef %23, i32 noundef 2, ptr noundef %24, ptr noundef %25)
  store ptr %26, ptr %6, align 8, !tbaa !150
  %27 = load ptr, ptr %6, align 8, !tbaa !150
  %28 = call i64 @gtk_file_chooser_get_type() #11
  %29 = call ptr @g_type_check_instance_cast(ptr noundef %27, i64 noundef %28)
  %30 = call i32 @dt_conf_get_folder_to_file_chooser(ptr noundef @.str.494, ptr noundef %29)
  %31 = load ptr, ptr %6, align 8, !tbaa !150
  %32 = call ptr @GTK_NATIVE_DIALOG(ptr noundef %31)
  %33 = call i32 @gtk_native_dialog_run(ptr noundef %32)
  %34 = icmp eq i32 %33, -3
  br i1 %34, label %35, label %95

35:                                               ; preds = %2
  call void @llvm.lifetime.start.p0(i64 8, ptr %7) #10
  %36 = load ptr, ptr %6, align 8, !tbaa !150
  %37 = call i64 @gtk_file_chooser_get_type() #11
  %38 = call ptr @g_type_check_instance_cast(ptr noundef %36, i64 noundef %37)
  %39 = call ptr @gtk_file_chooser_get_filename(ptr noundef %38)
  store ptr %39, ptr %7, align 8, !tbaa !73
  call void @llvm.lifetime.start.p0(i64 8, ptr %8) #10
  %40 = load ptr, ptr getelementptr inbounds nuw (%struct.darktable_t, ptr @darktable, i32 0, i32 18), align 8, !tbaa !139
  call void @dt_database_start_transaction(ptr noundef %40)
  br label %41

41:                                               ; preds = %35
  br label %42

42:                                               ; preds = %41
  %43 = load i32, ptr getelementptr inbounds nuw (%struct.darktable_t, ptr @darktable, i32 0, i32 2), align 8, !tbaa !82
  %44 = and i32 256, %43
  %45 = icmp ne i32 %44, 0
  br i1 %45, label %46, label %52

46:                                               ; preds = %42
  %47 = load i32, ptr getelementptr inbounds nuw (%struct.darktable_t, ptr @darktable, i32 0, i32 2), align 8, !tbaa !82
  %48 = xor i32 %47, -1
  %49 = and i32 0, %48
  %50 = icmp ne i32 %49, 0
  br i1 %50, label %52, label %51

51:                                               ; preds = %46
  call void (ptr, ...) @dt_print_ext(ptr noundef @.str.476, ptr noundef @.str.48, i32 noundef 1281, ptr noundef @__FUNCTION__.export_preset, ptr noundef @.str.495)
  br label %52

52:                                               ; preds = %51, %46, %42
  br label %53

53:                                               ; preds = %52
  br label %54

54:                                               ; preds = %53
  call void @llvm.lifetime.start.p0(i64 4, ptr %9) #10
  %55 = load ptr, ptr getelementptr inbounds nuw (%struct.darktable_t, ptr @darktable, i32 0, i32 18), align 8, !tbaa !139
  %56 = call ptr @dt_database_get(ptr noundef %55)
  %57 = call i32 @sqlite3_prepare_v2(ptr noundef %56, ptr noundef @.str.495, i32 noundef -1, ptr noundef %8, ptr noundef null)
  store i32 %57, ptr %9, align 4, !tbaa !57
  %58 = load i32, ptr %9, align 4, !tbaa !57
  %59 = icmp ne i32 %58, 0
  br i1 %59, label %60, label %66

60:                                               ; preds = %54
  %61 = load ptr, ptr @stderr, align 8, !tbaa !140
  %62 = load ptr, ptr getelementptr inbounds nuw (%struct.darktable_t, ptr @darktable, i32 0, i32 18), align 8, !tbaa !139
  %63 = call ptr @dt_database_get(ptr noundef %62)
  %64 = call ptr @sqlite3_errmsg(ptr noundef %63)
  %65 = call i32 (ptr, ptr, ...) @fprintf(ptr noundef %61, ptr noundef @.str.478, ptr noundef @.str.48, i32 noundef 1281, ptr noundef @__FUNCTION__.export_preset, ptr noundef @.str.495, ptr noundef %64) #10
  br label %66

66:                                               ; preds = %60, %54
  call void @llvm.lifetime.end.p0(i64 4, ptr %9) #10
  br label %67

67:                                               ; preds = %66
  br label %68

68:                                               ; preds = %67
  br label %69

69:                                               ; preds = %73, %68
  %70 = load ptr, ptr %8, align 8, !tbaa !142
  %71 = call i32 @sqlite3_step(ptr noundef %70)
  %72 = icmp eq i32 %71, 100
  br i1 %72, label %73, label %87

73:                                               ; preds = %69
  call void @llvm.lifetime.start.p0(i64 4, ptr %10) #10
  %74 = load ptr, ptr %8, align 8, !tbaa !142
  %75 = call i32 @sqlite3_column_int(ptr noundef %74, i32 noundef 0)
  store i32 %75, ptr %10, align 4, !tbaa !57
  call void @llvm.lifetime.start.p0(i64 8, ptr %11) #10
  %76 = load ptr, ptr %8, align 8, !tbaa !142
  %77 = call ptr @sqlite3_column_text(ptr noundef %76, i32 noundef 1)
  store ptr %77, ptr %11, align 8, !tbaa !73
  call void @llvm.lifetime.start.p0(i64 8, ptr %12) #10
  %78 = load ptr, ptr %8, align 8, !tbaa !142
  %79 = call ptr @sqlite3_column_text(ptr noundef %78, i32 noundef 2)
  store ptr %79, ptr %12, align 8, !tbaa !73
  call void @llvm.lifetime.start.p0(i64 8, ptr %13) #10
  %80 = load ptr, ptr %12, align 8, !tbaa !73
  %81 = load ptr, ptr %11, align 8, !tbaa !73
  %82 = call noalias ptr (ptr, ...) @g_strdup_printf(ptr noundef @.str.496, ptr noundef %80, ptr noundef %81)
  store ptr %82, ptr %13, align 8, !tbaa !73
  %83 = load i32, ptr %10, align 4, !tbaa !57
  %84 = load ptr, ptr %13, align 8, !tbaa !73
  %85 = load ptr, ptr %7, align 8, !tbaa !73
  call void @dt_presets_save_to_file(i32 noundef %83, ptr noundef %84, ptr noundef %85)
  %86 = load ptr, ptr %13, align 8, !tbaa !73
  call void @g_free(ptr noundef %86)
  call void @llvm.lifetime.end.p0(i64 8, ptr %13) #10
  call void @llvm.lifetime.end.p0(i64 8, ptr %12) #10
  call void @llvm.lifetime.end.p0(i64 8, ptr %11) #10
  call void @llvm.lifetime.end.p0(i64 4, ptr %10) #10
  br label %69

87:                                               ; preds = %69
  %88 = load ptr, ptr %8, align 8, !tbaa !142
  %89 = call i32 @sqlite3_finalize(ptr noundef %88)
  %90 = load ptr, ptr getelementptr inbounds nuw (%struct.darktable_t, ptr @darktable, i32 0, i32 18), align 8, !tbaa !139
  call void @dt_database_release_transaction(ptr noundef %90)
  %91 = load ptr, ptr %6, align 8, !tbaa !150
  %92 = call i64 @gtk_file_chooser_get_type() #11
  %93 = call ptr @g_type_check_instance_cast(ptr noundef %91, i64 noundef %92)
  call void @dt_conf_set_folder_from_file_chooser(ptr noundef @.str.494, ptr noundef %93)
  %94 = load ptr, ptr %7, align 8, !tbaa !73
  call void @g_free(ptr noundef %94)
  call void @llvm.lifetime.end.p0(i64 8, ptr %8) #10
  call void @llvm.lifetime.end.p0(i64 8, ptr %7) #10
  br label %95

95:                                               ; preds = %87, %2
  %96 = load ptr, ptr %6, align 8, !tbaa !150
  call void @g_object_unref(ptr noundef %96)
  call void @llvm.lifetime.end.p0(i64 8, ptr %6) #10
  call void @llvm.lifetime.end.p0(i64 8, ptr %5) #10
  ret void
}