; Function Attrs: nounwind uwtable
define internal void @export_preset(ptr noundef %0, ptr readnone captures(none) %1) #0 {
  %3 = alloca ptr, align 8
  %4 = tail call i64 @gtk_widget_get_type() #13
  %5 = tail call ptr @g_type_check_instance_cast(ptr noundef %0, i64 noundef %4) #12
  %6 = tail call ptr @gtk_widget_get_toplevel(ptr noundef %5) #12
  %7 = tail call i64 @gtk_window_get_type() #13
  %8 = tail call ptr @g_type_check_instance_cast(ptr noundef %6, i64 noundef %7) #12
  %9 = tail call ptr @dcgettext(ptr noundef null, ptr noundef nonnull @.str.259, i32 noundef 5) #12
  %10 = tail call ptr @g_type_check_instance_cast(ptr noundef %8, i64 noundef %7) #12
  %11 = tail call ptr @dcgettext(ptr noundef null, ptr noundef nonnull @.str.493, i32 noundef 5) #12
  %12 = tail call ptr @dcgettext(ptr noundef null, ptr noundef nonnull @.str.485, i32 noundef 5) #12
  %13 = tail call ptr @gtk_file_chooser_native_new(ptr noundef %9, ptr noundef %10, i32 noundef 2, ptr noundef %11, ptr noundef %12) #12
  %14 = tail call i64 @gtk_file_chooser_get_type() #13
  %15 = tail call ptr @g_type_check_instance_cast(ptr noundef %13, i64 noundef %14) #12
  %16 = tail call i32 @dt_conf_get_folder_to_file_chooser(ptr noundef nonnull @.str.494, ptr noundef %15) #12
  %17 = tail call i64 @gtk_native_dialog_get_type() #12
  %18 = tail call ptr @g_type_check_instance_cast(ptr noundef %13, i64 noundef %17) #12
  %19 = tail call i32 @gtk_native_dialog_run(ptr noundef %18) #12
  %20 = icmp eq i32 %19, -3
  br i1 %20, label %21, label %56

21:                                               ; preds = %2
  %22 = tail call ptr @g_type_check_instance_cast(ptr noundef %13, i64 noundef %14) #12
  %23 = tail call ptr @gtk_file_chooser_get_filename(ptr noundef %22) #12
  call void @llvm.lifetime.start.p0(i64 8, ptr nonnull %3) #12
  %24 = load ptr, ptr getelementptr inbounds nuw (i8, ptr @darktable, i64 136), align 8, !tbaa !99
  tail call void @dt_database_start_transaction(ptr noundef %24) #12
  %25 = load i32, ptr getelementptr inbounds nuw (i8, ptr @darktable, i64 8), align 8, !tbaa !78
  %26 = and i32 %25, 256
  %.not = icmp eq i32 %26, 0
  br i1 %.not, label %28, label %27

27:                                               ; preds = %21
  tail call void (ptr, ...) @dt_print_ext(ptr noundef nonnull @.str.476, ptr noundef nonnull @.str.48, i32 noundef 1281, ptr noundef nonnull @__FUNCTION__.export_preset, ptr noundef nonnull @.str.495) #12
  br label %28

28:                                               ; preds = %27, %21
  %29 = load ptr, ptr getelementptr inbounds nuw (i8, ptr @darktable, i64 136), align 8, !tbaa !99
  %30 = tail call ptr @dt_database_get(ptr noundef %29) #12
  %31 = call i32 @sqlite3_prepare_v2(ptr noundef %30, ptr noundef nonnull @.str.495, i32 noundef -1, ptr noundef nonnull %3, ptr noundef null) #12
  %.not14 = icmp eq i32 %31, 0
  br i1 %.not14, label %38, label %32

32:                                               ; preds = %28
  %33 = load ptr, ptr @stderr, align 8, !tbaa !100
  %34 = load ptr, ptr getelementptr inbounds nuw (i8, ptr @darktable, i64 136), align 8, !tbaa !99
  %35 = call ptr @dt_database_get(ptr noundef %34) #12
  %36 = call ptr @sqlite3_errmsg(ptr noundef %35) #12
  %37 = call i32 (ptr, ptr, ...) @fprintf(ptr noundef %33, ptr noundef nonnull @.str.478, ptr noundef nonnull @.str.48, i32 noundef 1281, ptr noundef nonnull @__FUNCTION__.export_preset, ptr noundef nonnull @.str.495, ptr noundef %36) #16
  br label %38

38:                                               ; preds = %32, %28
  %39 = load ptr, ptr %3, align 8, !tbaa !102
  %40 = call i32 @sqlite3_step(ptr noundef %39) #12
  %41 = icmp eq i32 %40, 100
  br i1 %41, label %.lr.ph, label %._crit_edge

.lr.ph:                                           ; preds = %38, %.lr.ph
  %42 = load ptr, ptr %3, align 8, !tbaa !102
  %43 = call i32 @sqlite3_column_int(ptr noundef %42, i32 noundef 0) #12
  %44 = load ptr, ptr %3, align 8, !tbaa !102
  %45 = call ptr @sqlite3_column_text(ptr noundef %44, i32 noundef 1) #12
  %46 = load ptr, ptr %3, align 8, !tbaa !102
  %47 = call ptr @sqlite3_column_text(ptr noundef %46, i32 noundef 2) #12
  %48 = call noalias ptr (ptr, ...) @g_strdup_printf(ptr noundef nonnull @.str.496, ptr noundef %47, ptr noundef %45) #12
  call void @dt_presets_save_to_file(i32 noundef %43, ptr noundef %48, ptr noundef %23) #12
  call void @g_free(ptr noundef %48) #12
  %49 = load ptr, ptr %3, align 8, !tbaa !102
  %50 = call i32 @sqlite3_step(ptr noundef %49) #12
  %51 = icmp eq i32 %50, 100
  br i1 %51, label %.lr.ph, label %._crit_edge

._crit_edge:                                      ; preds = %.lr.ph, %38
  %52 = load ptr, ptr %3, align 8, !tbaa !102
  %53 = call i32 @sqlite3_finalize(ptr noundef %52) #12
  %54 = load ptr, ptr getelementptr inbounds nuw (i8, ptr @darktable, i64 136), align 8, !tbaa !99
  call void @dt_database_release_transaction(ptr noundef %54) #12
  %55 = call ptr @g_type_check_instance_cast(ptr noundef %13, i64 noundef %14) #12
  call void @dt_conf_set_folder_from_file_chooser(ptr noundef nonnull @.str.494, ptr noundef %55) #12
  call void @g_free(ptr noundef %23) #12
  call void @llvm.lifetime.end.p0(i64 8, ptr nonnull %3) #12
  br label %56

56:                                               ; preds = %._crit_edge, %2
  call void @g_object_unref(ptr noundef %13) #12
  ret void
}